(dp1
S'TrapRegion.name'
p2
S'Q'
sS'TrapRegion.center'
p3
F11.337300000000001
sS'TrapRegion.sym_scale'
p4
F1.6569999999999998
sS'LasersPanel.region4'
p5
S'Q'
sS'LasersPanel.region3'
p6
S'Q'
sS'LasersPanel.region2'
p7
S'Q'
sS'LasersPanel.region1'
p8
S'Q'
sS'TrapRegion.sub_electrode'
p9
I01
sS'chip.trap'
p10
Vhoa2
p11
sS'TrapRegion.solution'
p12
S'Johns solution'
p13
s.