(dp1
S'acqusition.camera.em_gain'
p2
F200
sS'LasersPanel.region4'
p3
S'Q'
sS'LasersPanel.region3'
p4
S'Q'
sS'LasersPanel.region2'
p5
S'Q'
sS'LasersPanel.region1'
p6
S'Q'
sS'acqusition.camera.frame_rate'
p7
F1
sS'chip.trap'
p8
Vhoa2
p9
sS'TrapRegion.name'
p10
S'Q'
sS'TrapRegion.solution_description'
p11
S'Symmetric merge'
p12
sS'SequenceBase.solution_description'
p13
S'Symmetric merge'
p14
s.