(dp1
S'TrapRegion.center'
p2
F8.4948999999999995
sS'TrapRegion.width'
p3
F3.8000000000000003
sS'LasersPanel.region4'
p4
S'Q'
sS'LasersPanel.region3'
p5
S'Q'
sS'LasersPanel.region2'
p6
S'Q'
sS'LasersPanel.region1'
p7
S'Q'
sS'chip.trap'
p8
Vhoa2
p9
sS'TrapRegion.name'
p10
S'Q'
sS'TrapRegion.solution_description'
p11
S'Symmetric merge'
p12
s.