(dp1
S'LasersPanel.region4'
p2
S'Q'
sS'LasersPanel.region3'
p3
S'Q'
sS'LasersPanel.region2'
p4
S'Q'
sS'LasersPanel.region1'
p5
S'Q'
sS'acqusition.camera.frame_rate'
p6
F0
sS'chip.trap'
p7
Vhoa2
p8
sS'TrapRegion.name'
p9
S'Q'
sS'TrapRegion.solution_description'
p10
S'Symmetric merge'
p11
sS'SequenceBase.solution_description'
p12
S'Symmetric merge'
p13
s.