(dp1
S'TrapRegion.center'
p2
F9.234
sS'LasersPanel.region4'
p3
S'Q'
sS'LasersPanel.region3'
p4
S'Q'
sS'LasersPanel.region2'
p5
S'Q'
sS'LasersPanel.region1'
p6
S'Q'
sS'TrapRegion.sub_electrode'
p7
I01
sS'chip.trap'
p8
Vhoa2
p9
sS'TrapRegion.name'
p10
S'Q'
sS'TrapRegion.solution_description'
p11
S'UW Quantum Region Solution'
p12
s.