(dp1
S'TrapRegion.name'
p2
S'Q'
sS'TrapRegion.center'
p3
F11.039
sS'TrapRegion.sym_scale'
p4
F2.7370000000000001
sS'LasersPanel.region4'
p5
S'Q'
sS'LasersPanel.region3'
p6
S'Q'
sS'LasersPanel.region2'
p7
S'Q'
sS'LasersPanel.region1'
p8
S'Q'
sS'TrapRegion.sub_electrode'
p9
I01
sS'chip.trap'
p10
Vhoa2
p11
sS'TrapRegion.solution'
p12
S'Symmetric merge'
p13
s.