(dp1
S'LasersPanel.region4'
p2
S'Q'
sS'LasersPanel.region3'
p3
S'Q'
sS'LasersPanel.region2'
p4
S'Q'
sS'LasersPanel.region1'
p5
S'Q'
sS'chip.trap'
p6
Vhoa2
p7
sS'TrapRegion.name'
p8
S'Q'
sS'TrapRegion.solution_description'
p9
S'UW Quantum Region Solution'
p10
sS'SequenceBase.solution_description'
p11
S'Symmetric merge'
p12
s.