(dp1
S'TrapRegion.center'
p2
F13.412099999999999
sS'LasersPanel.region4'
p3
S'Q'
sS'LasersPanel.region3'
p4
S'Q'
sS'LasersPanel.region2'
p5
S'Q'
sS'LasersPanel.region1'
p6
S'Q'
sS'chip.trap'
p7
Vhoa2
p8
sS'TrapRegion.name'
p9
S'Q'
sS'TrapRegion.solution_description'
p10
S'UW Quantum Region Solution'
p11
s.