(dp1
S'acqusition.camera.em_gain'
p2
F1
sS'LasersPanel.region4'
p3
S'Q'
sS'LasersPanel.region3'
p4
S'Q'
sS'LasersPanel.region2'
p5
S'Q'
sS'LasersPanel.region1'
p6
S'Q'
sS'chip.trap'
p7
Vhoa2
p8
sS'TrapRegion.name'
p9
S'Q'
sS'TrapRegion.solution_description'
p10
S'Symmetric merge'
p11
sS'SequenceBase.solution_description'
p12
S'Symmetric merge'
p13
s.